((lp1
(I200
I200
tp2
a(I400
I200
tp3
a(I400
I400
tp4
a(I200
I400
tp5
a(I600
I200
tp6
a(I600
I400
tp7
a(I400
I64
tp8
a(I592
I64
tp9
a(lp10
(lp11
I0
aI1
aI2
aI3
aa(lp12
I1
aI4
aI5
aI2
aa(lp13
I1
aI6
aI7
aI4
aat.